; Function Attrs: nounwind uwtable
define ptr @l_Array_foldlMUnsafe_fold___at_Lake_inputDir___spec__2(ptr noundef %0, ptr noundef readonly captures(none) %1, i64 noundef %2, i64 noundef %3, ptr noundef %4) local_unnamed_addr #0 {
  %.not54 = icmp eq i64 %2, %3
  br i1 %.not54, label %.._crit_edge_crit_edge, label %.lr.ph

.._crit_edge_crit_edge:                           ; preds = %5
  %.pre = ptrtoint ptr %0 to i64
  %.pre57 = and i64 %.pre, 1
  br label %._crit_edge

.lr.ph:                                           ; preds = %5
  %6 = getelementptr inbounds nuw i8, ptr %1, i64 24
  %7 = ptrtoint ptr %0 to i64
  %8 = and i64 %7, 1
  %.not51 = icmp eq i64 %8, 0
  br label %9

9:                                                ; preds = %.lr.ph, %lean_dec.exit32
  %.02656 = phi i64 [ %2, %.lr.ph ], [ %45, %lean_dec.exit32 ]
  %.02855 = phi ptr [ %4, %.lr.ph ], [ %.230, %lean_dec.exit32 ]
  %10 = getelementptr inbounds nuw [0 x ptr], ptr %6, i64 0, i64 %.02656
  %11 = load ptr, ptr %10, align 8, !tbaa !9
  %12 = ptrtoint ptr %11 to i64
  %13 = and i64 %12, 1
  %.not.i38 = icmp eq i64 %13, 0
  br i1 %.not.i38, label %14, label %lean_array_uget.exit

14:                                               ; preds = %9
  %.val.i.i = load i32, ptr %11, align 4, !tbaa !4
  %15 = icmp sgt i32 %.val.i.i, 0
  br i1 %15, label %16, label %18, !prof !12

16:                                               ; preds = %14
  %17 = add nuw i32 %.val.i.i, 1
  store i32 %17, ptr %11, align 4, !tbaa !4
  br label %lean_array_uget.exit

18:                                               ; preds = %14
  %.not.i.i = icmp eq i32 %.val.i.i, 0
  br i1 %.not.i.i, label %lean_array_uget.exit, label %19

19:                                               ; preds = %18
  tail call void @lean_inc_ref_cold(ptr noundef nonnull %11) #5
  br label %lean_array_uget.exit

lean_array_uget.exit:                             ; preds = %9, %16, %18, %19
  %20 = tail call ptr @l_IO_FS_DirEntry_path(ptr noundef %11) #5
  br i1 %.not51, label %21, label %lean_inc.exit31

21:                                               ; preds = %lean_array_uget.exit
  %.val.i = load i32, ptr %0, align 4, !tbaa !4
  %22 = icmp sgt i32 %.val.i, 0
  br i1 %22, label %23, label %25, !prof !12

23:                                               ; preds = %21
  %24 = add nuw i32 %.val.i, 1
  store i32 %24, ptr %0, align 4, !tbaa !4
  br label %lean_inc.exit31

25:                                               ; preds = %21
  %.not.i39 = icmp eq i32 %.val.i, 0
  br i1 %.not.i39, label %lean_inc.exit31, label %26

26:                                               ; preds = %25
  tail call void @lean_inc_ref_cold(ptr noundef nonnull %0) #5
  br label %lean_inc.exit31

lean_inc.exit31:                                  ; preds = %26, %25, %23, %lean_array_uget.exit
  %27 = ptrtoint ptr %20 to i64
  %28 = and i64 %27, 1
  %.not52 = icmp eq i64 %28, 0
  br i1 %.not52, label %29, label %lean_inc.exit

29:                                               ; preds = %lean_inc.exit31
  %.val.i40 = load i32, ptr %20, align 4, !tbaa !4
  %30 = icmp sgt i32 %.val.i40, 0
  br i1 %30, label %31, label %33, !prof !12

31:                                               ; preds = %29
  %32 = add nuw i32 %.val.i40, 1
  store i32 %32, ptr %20, align 4, !tbaa !4
  br label %lean_inc.exit

33:                                               ; preds = %29
  %.not.i41 = icmp eq i32 %.val.i40, 0
  br i1 %.not.i41, label %lean_inc.exit, label %34

34:                                               ; preds = %33
  tail call void @lean_inc_ref_cold(ptr noundef nonnull %20) #5
  br label %lean_inc.exit

lean_inc.exit:                                    ; preds = %34, %33, %31, %lean_inc.exit31
  %35 = tail call ptr @lean_apply_1(ptr noundef %0, ptr noundef %20) #5
  %36 = ptrtoint ptr %35 to i64
  %37 = and i64 %36, 1
  %.not53 = icmp eq i64 %37, 0
  br i1 %.not53, label %38, label %lean_dec.exit33

38:                                               ; preds = %lean_inc.exit
  %39 = load i32, ptr %35, align 4, !tbaa !4
  %40 = icmp sgt i32 %39, 1
  br i1 %40, label %41, label %43, !prof !12

41:                                               ; preds = %38
  %42 = add nsw i32 %39, -1
  store i32 %42, ptr %35, align 4, !tbaa !4
  br label %lean_dec.exit33

43:                                               ; preds = %38
  %.not.i = icmp eq i32 %39, 0
  br i1 %.not.i, label %lean_dec.exit33, label %44

44:                                               ; preds = %43
  tail call void @lean_dec_ref_cold(ptr noundef nonnull %35) #5
  br label %lean_dec.exit33

lean_dec.exit33:                                  ; preds = %44, %43, %41, %lean_inc.exit
  %45 = add i64 %.02656, 1
  %46 = and i64 %36, 510
  %47 = icmp eq i64 %46, 0
  br i1 %47, label %48, label %56

48:                                               ; preds = %lean_dec.exit33
  br i1 %.not52, label %49, label %lean_dec.exit32

49:                                               ; preds = %48
  %50 = load i32, ptr %20, align 4, !tbaa !4
  %51 = icmp sgt i32 %50, 1
  br i1 %51, label %52, label %54, !prof !12

52:                                               ; preds = %49
  %53 = add nsw i32 %50, -1
  store i32 %53, ptr %20, align 4, !tbaa !4
  br label %lean_dec.exit32

54:                                               ; preds = %49
  %.not.i34 = icmp eq i32 %50, 0
  br i1 %.not.i34, label %lean_dec.exit32, label %55

55:                                               ; preds = %54
  tail call void @lean_dec_ref_cold(ptr noundef nonnull %20) #5
  br label %lean_dec.exit32

56:                                               ; preds = %lean_dec.exit33
  %57 = tail call ptr @lean_array_push(ptr noundef %.02855, ptr noundef %20) #5
  br label %lean_dec.exit32

._crit_edge:                                      ; preds = %lean_dec.exit32, %.._crit_edge_crit_edge
  %.pre-phi58 = phi i64 [ %.pre57, %.._crit_edge_crit_edge ], [ %8, %lean_dec.exit32 ]
  %.028.lcssa = phi ptr [ %4, %.._crit_edge_crit_edge ], [ %.230, %lean_dec.exit32 ]
  %.not50 = icmp eq i64 %.pre-phi58, 0
  br i1 %.not50, label %58, label %65

58:                                               ; preds = %._crit_edge
  %59 = load i32, ptr %0, align 4, !tbaa !4
  %60 = icmp sgt i32 %59, 1
  br i1 %60, label %61, label %63, !prof !12

61:                                               ; preds = %58
  %62 = add nsw i32 %59, -1
  store i32 %62, ptr %0, align 4, !tbaa !4
  br label %65

63:                                               ; preds = %58
  %.not.i36 = icmp eq i32 %59, 0
  br i1 %.not.i36, label %65, label %64

64:                                               ; preds = %63
  tail call void @lean_dec_ref_cold(ptr noundef nonnull %0) #5
  br label %65

lean_dec.exit32:                                  ; preds = %48, %52, %54, %55, %56
  %.230 = phi ptr [ %57, %56 ], [ %.02855, %55 ], [ %.02855, %54 ], [ %.02855, %52 ], [ %.02855, %48 ]
  %.not = icmp eq i64 %45, %3
  br i1 %.not, label %._crit_edge, label %9

65:                                               ; preds = %64, %63, %61, %._crit_edge
  ret ptr %.028.lcssa
}